target datalayout = "e-m:e-p270:32:32-p271:32:32-p272:64:64-i64:64-i128:128-f80:128-n8:16:32:64-S128"
target triple = "x86_64-unknown-linux-gnu"

%"class.std::basic_string_view" = type { i64, ptr }
%"class.absl::lts_20230802::Status" = type { i64 }
%"class.absl::lts_20230802::StatusOr.262" = type { %"class.absl::lts_20230802::internal_statusor::StatusOrData.base", [4 x i8] }
%"class.absl::lts_20230802::internal_statusor::StatusOrData.base" = type <{ %union.anon.264, %union.anon.265 }>
%union.anon.264 = type { %"class.absl::lts_20230802::Status" }
%union.anon.265 = type { i32 }
%"class.absl::lts_20230802::internal_statusor::StatusOrData.263" = type <{ %union.anon.264, %union.anon.265, [4 x i8] }>
%class.anon.327 = type { ptr, ptr, ptr }

@.str.42 = private unnamed_addr constant [5 x i8] c"null\00", align 1

; Function Attrs: mustprogress nounwind uwtable
define linkonce_odr hidden noundef zeroext i1 @_ZN4absl12lts_202308026Status9IsInlinedEm(i64 noundef %rep) #6 comdat align 2 {
entry:
  %rep.addr = alloca i64, align 8
  store i64 %rep, ptr %rep.addr, align 8
  %0 = load i64, ptr %rep.addr, align 8
  %and = and i64 %0, 1
  %cmp = icmp eq i64 %and, 0
  ret i1 %cmp
}

; Function Attrs: mustprogress uwtable
define linkonce_odr hidden void @_ZN4absl12lts_202308026Status5UnrefEm(i64 noundef %rep) #4 comdat align 2 {
entry:
  %rep.addr = alloca i64, align 8
  store i64 %rep, ptr %rep.addr, align 8
  %0 = load i64, ptr %rep.addr, align 8
  %call = call noundef zeroext i1 @_ZN4absl12lts_202308026Status9IsInlinedEm(i64 noundef %0)
  br i1 %call, label %if.end, label %if.then

if.then:                                          ; preds = %entry
  %1 = load i64, ptr %rep.addr, align 8
  call void @_ZN4absl12lts_202308026Status15UnrefNonInlinedEm(i64 noundef %1)
  br label %if.end

if.end:                                           ; preds = %if.then, %entry
  ret void
}

; Function Attrs: mustprogress nounwind uwtable
define linkonce_odr hidden void @_ZN4absl12lts_202308026StatusD2Ev(ptr noundef nonnull align 8 dereferenceable(8) %this) unnamed_addr #6 comdat align 2 personality ptr @__gxx_personality_v0 {
entry:
  %this.addr = alloca ptr, align 8
  store ptr %this, ptr %this.addr, align 8
  %this1 = load ptr, ptr %this.addr, align 8
  %rep_ = getelementptr inbounds %"class.absl::lts_20230802::Status", ptr %this1, i32 0, i32 0
  %0 = load i64, ptr %rep_, align 8
  invoke void @_ZN4absl12lts_202308026Status5UnrefEm(i64 noundef %0)
          to label %invoke.cont unwind label %terminate.lpad

invoke.cont:                                      ; preds = %entry
  ret void

terminate.lpad:                                   ; preds = %entry
  %1 = landingpad { ptr, i32 }
          catch ptr null
  %2 = extractvalue { ptr, i32 } %1, 0
  call void @__clang_call_terminate(ptr %2) #21
  unreachable
}

; Function Attrs: mustprogress uwtable
define linkonce_odr hidden noundef zeroext i1 @_ZNK4absl12lts_2023080217internal_statusor12StatusOrDataIN6google8protobuf13json_internal9JsonLexer4KindEE2okEv(ptr noundef nonnull align 8 dereferenceable(12) %this) #4 comdat align 2 {
entry:
  %this.addr = alloca ptr, align 8
  store ptr %this, ptr %this.addr, align 8
  %this1 = load ptr, ptr %this.addr, align 8
  %0 = getelementptr inbounds %"class.absl::lts_20230802::internal_statusor::StatusOrData.263", ptr %this1, i32 0, i32 0
  %call = call noundef zeroext i1 @_ZNK4absl12lts_202308026Status2okEv(ptr noundef nonnull align 8 dereferenceable(8) %0)
  ret i1 %call
}

; Function Attrs: mustprogress nounwind uwtable
define linkonce_odr hidden noundef i64 @_ZN4absl12lts_202308026Status16CodeToInlinedRepENS0_10StatusCodeE(i32 noundef %code) #6 comdat align 2 {
entry:
  %code.addr = alloca i32, align 4
  store i32 %code, ptr %code.addr, align 4
  %0 = load i32, ptr %code.addr, align 4
  %conv = sext i32 %0 to i64
  %shl = shl i64 %conv, 2
  ret i64 %shl
}

; Function Attrs: mustprogress nounwind uwtable
define linkonce_odr hidden void @_ZN4absl12lts_2023080217internal_statusor12StatusOrDataIN6google8protobuf13json_internal9JsonLexer4KindEED2Ev(ptr noundef nonnull align 8 dereferenceable(12) %this) unnamed_addr #6 comdat align 2 personality ptr @__gxx_personality_v0 {
entry:
  %this.addr = alloca ptr, align 8
  store ptr %this, ptr %this.addr, align 8
  %this1 = load ptr, ptr %this.addr, align 8
  %call = invoke noundef zeroext i1 @_ZNK4absl12lts_2023080217internal_statusor12StatusOrDataIN6google8protobuf13json_internal9JsonLexer4KindEE2okEv(ptr noundef nonnull align 8 dereferenceable(12) %this1)
          to label %invoke.cont unwind label %terminate.lpad

invoke.cont:                                      ; preds = %entry
  br i1 %call, label %if.then, label %if.else

if.then:                                          ; preds = %invoke.cont
  %0 = getelementptr inbounds %"class.absl::lts_20230802::internal_statusor::StatusOrData.263", ptr %this1, i32 0, i32 0
  call void @_ZN4absl12lts_202308026StatusD2Ev(ptr noundef nonnull align 8 dereferenceable(8) %0) #3
  br label %if.end

if.else:                                          ; preds = %invoke.cont
  %1 = getelementptr inbounds %"class.absl::lts_20230802::internal_statusor::StatusOrData.263", ptr %this1, i32 0, i32 0
  call void @_ZN4absl12lts_202308026StatusD2Ev(ptr noundef nonnull align 8 dereferenceable(8) %1) #3
  br label %if.end

if.end:                                           ; preds = %if.else, %if.then
  ret void

terminate.lpad:                                   ; preds = %entry
  %2 = landingpad { ptr, i32 }
          catch ptr null
  %3 = extractvalue { ptr, i32 } %2, 0
  call void @__clang_call_terminate(ptr %3) #21
  unreachable
}

; Function Attrs: mustprogress uwtable
define linkonce_odr hidden void @_ZNK4absl12lts_2023080217internal_statusor12StatusOrDataIN6google8protobuf13json_internal9JsonLexer4KindEE8EnsureOkEv(ptr noundef nonnull align 8 dereferenceable(12) %this) #4 comdat align 2 {
entry:
  %this.addr = alloca ptr, align 8
  store ptr %this, ptr %this.addr, align 8
  %this1 = load ptr, ptr %this.addr, align 8
  %call = call noundef zeroext i1 @_ZNK4absl12lts_2023080217internal_statusor12StatusOrDataIN6google8protobuf13json_internal9JsonLexer4KindEE2okEv(ptr noundef nonnull align 8 dereferenceable(12) %this1)
  %lnot = xor i1 %call, true
  br i1 %lnot, label %if.then, label %if.end

if.then:                                          ; preds = %entry
  %0 = getelementptr inbounds %"class.absl::lts_20230802::internal_statusor::StatusOrData.263", ptr %this1, i32 0, i32 0
  call void @_ZN4absl12lts_2023080217internal_statusor6Helper5CrashERKNS0_6StatusE(ptr noundef nonnull align 8 dereferenceable(8) %0) #22
  unreachable

if.end:                                           ; preds = %entry
  ret void
}

; Function Attrs: mustprogress uwtable
define linkonce_odr hidden noundef zeroext i1 @_ZNK4absl12lts_202308026Status2okEv(ptr noundef nonnull align 8 dereferenceable(8) %this) #4 comdat align 2 {
entry:
  %this.addr = alloca ptr, align 8
  store ptr %this, ptr %this.addr, align 8
  %this1 = load ptr, ptr %this.addr, align 8
  %rep_ = getelementptr inbounds %"class.absl::lts_20230802::Status", ptr %this1, i32 0, i32 0
  %0 = load i64, ptr %rep_, align 8
  %call = call noundef i64 @_ZN4absl12lts_202308026Status16CodeToInlinedRepENS0_10StatusCodeE(i32 noundef 0)
  %cmp = icmp eq i64 %0, %call
  ret i1 %cmp
}

; Function Attrs: mustprogress nounwind uwtable
define linkonce_odr hidden noundef i64 @_ZNSt11char_traitsIcE6lengthEPKc(ptr noundef %__s) #6 comdat align 2 {
entry:
  %__s.addr = alloca ptr, align 8
  store ptr %__s, ptr %__s.addr, align 8
  %0 = load ptr, ptr %__s.addr, align 8
  %call = call i64 @strlen(ptr noundef %0) #3
  ret i64 %call
}

; Function Attrs: mustprogress nounwind uwtable
define linkonce_odr hidden void @_ZN4absl12lts_202308028StatusOrIN6google8protobuf13json_internal9JsonLexer4KindEED2Ev(ptr noundef nonnull align 8 dereferenceable(12) %this) unnamed_addr #6 comdat align 2 {
entry:
  %this.addr = alloca ptr, align 8
  store ptr %this, ptr %this.addr, align 8
  %this1 = load ptr, ptr %this.addr, align 8
  call void @_ZN4absl12lts_2023080217internal_statusor12StatusOrDataIN6google8protobuf13json_internal9JsonLexer4KindEED2Ev(ptr noundef nonnull align 8 dereferenceable(12) %this1) #3
  ret void
}

; Function Attrs: mustprogress uwtable
define linkonce_odr hidden noundef nonnull align 4 dereferenceable(4) ptr @_ZNR4absl12lts_202308028StatusOrIN6google8protobuf13json_internal9JsonLexer4KindEEdeEv(ptr noundef nonnull align 8 dereferenceable(12) %this) #4 comdat align 2 {
entry:
  %this.addr = alloca ptr, align 8
  store ptr %this, ptr %this.addr, align 8
  %this1 = load ptr, ptr %this.addr, align 8
  call void @_ZNK4absl12lts_2023080217internal_statusor12StatusOrDataIN6google8protobuf13json_internal9JsonLexer4KindEE8EnsureOkEv(ptr noundef nonnull align 8 dereferenceable(12) %this1)
  %0 = getelementptr inbounds %"class.absl::lts_20230802::internal_statusor::StatusOrData.263", ptr %this1, i32 0, i32 1
  ret ptr %0
}

; Function Attrs: mustprogress uwtable
define linkonce_odr hidden noundef zeroext i1 @_ZNK4absl12lts_202308028StatusOrIN6google8protobuf13json_internal9JsonLexer4KindEE2okEv(ptr noundef nonnull align 8 dereferenceable(12) %this) #4 comdat align 2 {
entry:
  %this.addr = alloca ptr, align 8
  store ptr %this, ptr %this.addr, align 8
  %this1 = load ptr, ptr %this.addr, align 8
  %0 = getelementptr inbounds %"class.absl::lts_20230802::internal_statusor::StatusOrData.263", ptr %this1, i32 0, i32 0
  %call = call noundef zeroext i1 @_ZNK4absl12lts_202308026Status2okEv(ptr noundef nonnull align 8 dereferenceable(8) %0)
  ret i1 %call
}

; Function Attrs: mustprogress nounwind uwtable
define linkonce_odr hidden void @_ZN6google8protobuf13json_internal12JsonLocation14SourceLocation7currentEv() #6 comdat align 2 {
entry:
  ret void
}

; Function Attrs: mustprogress nounwind uwtable
define linkonce_odr hidden void @_ZNSt17basic_string_viewIcSt11char_traitsIcEEC2EPKc(ptr noundef nonnull align 8 dereferenceable(16) %this, ptr noundef nonnull %__str) unnamed_addr #6 comdat align 2 personality ptr @__gxx_personality_v0 {
entry:
  %this.addr = alloca ptr, align 8
  %__str.addr = alloca ptr, align 8
  store ptr %this, ptr %this.addr, align 8
  store ptr %__str, ptr %__str.addr, align 8
  %this1 = load ptr, ptr %this.addr, align 8
  %_M_len = getelementptr inbounds %"class.std::basic_string_view", ptr %this1, i32 0, i32 0
  %0 = load ptr, ptr %__str.addr, align 8
  %call = invoke noundef i64 @_ZNSt11char_traitsIcE6lengthEPKc(ptr noundef %0)
          to label %invoke.cont unwind label %terminate.lpad

invoke.cont:                                      ; preds = %entry
  store i64 %call, ptr %_M_len, align 8
  %_M_str = getelementptr inbounds %"class.std::basic_string_view", ptr %this1, i32 0, i32 1
  %1 = load ptr, ptr %__str.addr, align 8
  store ptr %1, ptr %_M_str, align 8
  ret void

terminate.lpad:                                   ; preds = %entry
  %2 = landingpad { ptr, i32 }
          catch ptr null
  %3 = extractvalue { ptr, i32 } %2, 0
  call void @__clang_call_terminate(ptr %3) #21
  unreachable
}

; Function Attrs: mustprogress uwtable
define linkonce_odr hidden noundef zeroext i1 @_ZN6google8protobuf13json_internal9JsonLexer4PeekENS2_4KindE(ptr noundef nonnull align 8 dereferenceable(136) %this, i32 noundef %needle) #4 comdat align 2 personality ptr @__gxx_personality_v0 {
entry:
  %this.addr = alloca ptr, align 8
  %needle.addr = alloca i32, align 4
  %kind = alloca %"class.absl::lts_20230802::StatusOr.262", align 8
  %exn.slot = alloca ptr, align 8
  %ehselector.slot = alloca i32, align 4
  store ptr %this, ptr %this.addr, align 8
  store i32 %needle, ptr %needle.addr, align 4
  %this1 = load ptr, ptr %this.addr, align 8
  call void @_ZN6google8protobuf13json_internal9JsonLexer8PeekKindEv(ptr sret(%"class.absl::lts_20230802::StatusOr.262") align 8 %kind, ptr noundef nonnull align 8 dereferenceable(136) %this1)
  %call = invoke noundef zeroext i1 @_ZNK4absl12lts_202308028StatusOrIN6google8protobuf13json_internal9JsonLexer4KindEE2okEv(ptr noundef nonnull align 8 dereferenceable(12) %kind)
          to label %invoke.cont unwind label %lpad

invoke.cont:                                      ; preds = %entry
  br i1 %call, label %land.rhs, label %land.end

land.rhs:                                         ; preds = %invoke.cont
  %call3 = invoke noundef nonnull align 4 dereferenceable(4) ptr @_ZNR4absl12lts_202308028StatusOrIN6google8protobuf13json_internal9JsonLexer4KindEEdeEv(ptr noundef nonnull align 8 dereferenceable(12) %kind)
          to label %invoke.cont2 unwind label %lpad

invoke.cont2:                                     ; preds = %land.rhs
  %0 = load i32, ptr %call3, align 4
  %1 = load i32, ptr %needle.addr, align 4
  %cmp = icmp eq i32 %0, %1
  br label %land.end

land.end:                                         ; preds = %invoke.cont2, %invoke.cont
  %2 = phi i1 [ false, %invoke.cont ], [ %cmp, %invoke.cont2 ]
  call void @_ZN4absl12lts_202308028StatusOrIN6google8protobuf13json_internal9JsonLexer4KindEED2Ev(ptr noundef nonnull align 8 dereferenceable(12) %kind) #3
  ret i1 %2

lpad:                                             ; preds = %land.rhs, %entry
  %3 = landingpad { ptr, i32 }
          cleanup
  %4 = extractvalue { ptr, i32 } %3, 0
  store ptr %4, ptr %exn.slot, align 8
  %5 = extractvalue { ptr, i32 } %3, 1
  store i32 %5, ptr %ehselector.slot, align 4
  call void @_ZN4absl12lts_202308028StatusOrIN6google8protobuf13json_internal9JsonLexer4KindEED2Ev(ptr noundef nonnull align 8 dereferenceable(12) %kind) #3
  br label %eh.resume

eh.resume:                                        ; preds = %lpad
  %exn = load ptr, ptr %exn.slot, align 8
  %sel = load i32, ptr %ehselector.slot, align 4
  %lpad.val = insertvalue { ptr, i32 } poison, ptr %exn, 0
  %lpad.val4 = insertvalue { ptr, i32 } %lpad.val, i32 %sel, 1
  resume { ptr, i32 } %lpad.val4
}

; Function Attrs: mustprogress uwtable
define internal void @_ZN6google8protobuf13json_internal12_GLOBAL__N_110ParseArrayINS1_21ParseProto2DescriptorEEEN4absl12lts_202308026StatusERNS1_9JsonLexerENT_5FieldERNSA_3MsgE(ptr noalias sret(%"class.absl::lts_20230802::Status") align 8 %agg.result, ptr noundef nonnull align 8 dereferenceable(136) %lex, ptr noundef %field, ptr noundef nonnull align 8 dereferenceable(72) %msg) #4 {
entry:
  %result.ptr = alloca ptr, align 8
  %lex.addr = alloca ptr, align 8
  %field.addr = alloca ptr, align 8
  %msg.addr = alloca ptr, align 8
  %agg.tmp = alloca %"class.std::basic_string_view", align 8
  %agg.tmp2 = alloca %class.anon.327, align 8
  store ptr %agg.result, ptr %result.ptr, align 8
  store ptr %lex, ptr %lex.addr, align 8
  store ptr %field, ptr %field.addr, align 8
  store ptr %msg, ptr %msg.addr, align 8
  %0 = load ptr, ptr %lex.addr, align 8
  %call = call noundef zeroext i1 @_ZN6google8protobuf13json_internal9JsonLexer4PeekENS2_4KindE(ptr noundef nonnull align 8 dereferenceable(136) %0, i32 noundef 6)
  br i1 %call, label %if.then, label %if.end

if.then:                                          ; preds = %entry
  %1 = load ptr, ptr %lex.addr, align 8
  call void @_ZNSt17basic_string_viewIcSt11char_traitsIcEEC2EPKc(ptr noundef nonnull align 8 dereferenceable(16) %agg.tmp, ptr noundef @.str.42) #3
  call void @_ZN6google8protobuf13json_internal12JsonLocation14SourceLocation7currentEv()
  %2 = getelementptr inbounds { i64, ptr }, ptr %agg.tmp, i32 0, i32 0
  %3 = load i64, ptr %2, align 8
  %4 = getelementptr inbounds { i64, ptr }, ptr %agg.tmp, i32 0, i32 1
  %5 = load ptr, ptr %4, align 8
  call void @_ZN6google8protobuf13json_internal9JsonLexer6ExpectESt17basic_string_viewIcSt11char_traitsIcEENS1_12JsonLocation14SourceLocationE(ptr sret(%"class.absl::lts_20230802::Status") align 8 %agg.result, ptr noundef nonnull align 8 dereferenceable(136) %1, i64 %3, ptr %5)
  br label %return

if.end:                                           ; preds = %entry
  %6 = load ptr, ptr %lex.addr, align 8
  %7 = getelementptr inbounds %class.anon.327, ptr %agg.tmp2, i32 0, i32 0
  %8 = load ptr, ptr %lex.addr, align 8
  store ptr %8, ptr %7, align 8
  %9 = getelementptr inbounds %class.anon.327, ptr %agg.tmp2, i32 0, i32 1
  store ptr %field.addr, ptr %9, align 8
  %10 = getelementptr inbounds %class.anon.327, ptr %agg.tmp2, i32 0, i32 2
  %11 = load ptr, ptr %msg.addr, align 8
  store ptr %11, ptr %10, align 8
  call void @_ZN6google8protobuf13json_internal9JsonLexer10VisitArrayIZNS1_12_GLOBAL__N_110ParseArrayINS1_21ParseProto2DescriptorEEEN4absl12lts_202308026StatusERS2_NT_5FieldERNSB_3MsgEEUlvE_EES9_SB_(ptr sret(%"class.absl::lts_20230802::Status") align 8 %agg.result, ptr noundef nonnull align 8 dereferenceable(136) %6, ptr noundef byval(%class.anon.327) align 8 %agg.tmp2)
  br label %return

return:                                           ; preds = %if.end, %if.then
  ret void
}