; Function Attrs: mustprogress uwtable
define internal fastcc void @_ZN6google8protobuf13json_internal12_GLOBAL__N_110ParseArrayINS1_21ParseProto2DescriptorEEEN4absl12lts_202308026StatusERNS1_9JsonLexerENT_5FieldERNSA_3MsgE(ptr noalias align 8 %agg.result, ptr noundef nonnull align 8 dereferenceable(136) %lex, ptr noundef %field, ptr noundef nonnull align 8 dereferenceable(72) %msg) unnamed_addr #3 personality ptr @__gxx_personality_v0 {
entry:
  %kind.i = alloca %"class.absl::lts_20230802::StatusOr.262", align 8
  %field.addr = alloca ptr, align 8
  %agg.tmp2 = alloca %class.anon.327, align 8
  store ptr %field, ptr %field.addr, align 8
  call void @llvm.lifetime.start.p0(i64 16, ptr nonnull %kind.i)
  call void @_ZN6google8protobuf13json_internal9JsonLexer8PeekKindEv(ptr nonnull sret(%"class.absl::lts_20230802::StatusOr.262") align 8 %kind.i, ptr noundef nonnull align 8 dereferenceable(136) %lex)
  %0 = load i64, ptr %kind.i, align 8
  %cmp.i.i.i = icmp eq i64 %0, 0
  br i1 %cmp.i.i.i, label %_ZN6google8protobuf13json_internal9JsonLexer4PeekENS2_4KindE.exit, label %land.end.i

land.end.i:                                       ; preds = %entry
  %and.i.i.i1.i.i.i = and i64 %0, 1
  %cmp.i.i.i2.i.i.i = icmp eq i64 %and.i.i.i1.i.i.i, 0
  br i1 %cmp.i.i.i2.i.i.i, label %_ZN6google8protobuf13json_internal9JsonLexer4PeekENS2_4KindE.exit.thread, label %if.then.i.i3.i.i.i

if.then.i.i3.i.i.i:                               ; preds = %land.end.i
  invoke void @_ZN4absl12lts_202308026Status15UnrefNonInlinedEm(i64 noundef %0)
          to label %_ZN6google8protobuf13json_internal9JsonLexer4PeekENS2_4KindE.exit.thread unwind label %terminate.lpad.i4.i.i.i

terminate.lpad.i4.i.i.i:                          ; preds = %if.then.i.i3.i.i.i
  %1 = landingpad { ptr, i32 }
          catch ptr null
  %2 = extractvalue { ptr, i32 } %1, 0
  call void @__clang_call_terminate(ptr %2) #23
  unreachable

_ZN6google8protobuf13json_internal9JsonLexer4PeekENS2_4KindE.exit.thread: ; preds = %land.end.i, %if.then.i.i3.i.i.i
  call void @llvm.lifetime.end.p0(i64 16, ptr nonnull %kind.i)
  br label %if.end

_ZN6google8protobuf13json_internal9JsonLexer4PeekENS2_4KindE.exit: ; preds = %entry
  %3 = getelementptr inbounds i8, ptr %kind.i, i64 8
  %4 = load i32, ptr %3, align 8
  %cmp.i = icmp eq i32 %4, 6
  call void @llvm.lifetime.end.p0(i64 16, ptr nonnull %kind.i)
  br i1 %cmp.i, label %if.then, label %if.end

if.then:                                          ; preds = %_ZN6google8protobuf13json_internal9JsonLexer4PeekENS2_4KindE.exit
  call void @_ZN6google8protobuf13json_internal9JsonLexer6ExpectESt17basic_string_viewIcSt11char_traitsIcEENS1_12JsonLocation14SourceLocationE(ptr sret(%"class.absl::lts_20230802::Status") align 8 %agg.result, ptr noundef nonnull align 8 dereferenceable(136) %lex, i64 4, ptr nonnull @.str.42)
  br label %return

if.end:                                           ; preds = %_ZN6google8protobuf13json_internal9JsonLexer4PeekENS2_4KindE.exit.thread, %_ZN6google8protobuf13json_internal9JsonLexer4PeekENS2_4KindE.exit
  store ptr %lex, ptr %agg.tmp2, align 8
  %5 = getelementptr inbounds i8, ptr %agg.tmp2, i64 8
  store ptr %field.addr, ptr %5, align 8
  %6 = getelementptr inbounds i8, ptr %agg.tmp2, i64 16
  store ptr %msg, ptr %6, align 8
  call fastcc void @_ZN6google8protobuf13json_internal9JsonLexer10VisitArrayIZNS1_12_GLOBAL__N_110ParseArrayINS1_21ParseProto2DescriptorEEEN4absl12lts_202308026StatusERS2_NT_5FieldERNSB_3MsgEEUlvE_EES9_SB_(ptr noalias align 8 %agg.result, ptr noundef nonnull align 8 dereferenceable(136) %lex, ptr noundef nonnull byval(%class.anon.327) align 8 %agg.tmp2)
  br label %return

return:                                           ; preds = %if.end, %if.then
  ret void
}